(dp0
V911130715373
p1
(dp2
S'Please say your name'
p3
S'name1397933197.56'
p4
sS'Please Say your qualification'
p5
S'qual1397933197.56'
p6
sS'proc'
p7
I0
ssV1126924703
p8
(dp9
S'Please say your name'
p10
S'name1397934731.93'
p11
sS'Please Say your qualification'
p12
S'qual1397934731.93'
p13
sS'proc'
p14
I0
ss.