(dp0
S''
p1
(dp2
S'Please say your name'
p3
S'name1397950866.89'
p4
sS'Please Say your qualification'
p5
S'qual1397950866.89'
p6
sS'proc'
p7
I0
ss.(dp0
S''
p1
(dp2
S'Please say your name'
p3
S'name1397950866.89'
p4
sS'Please Say your qualification'
p5
S'qual1397950866.89'
p6
sS'proc'
p7
I0
ssV008285543936
p8
(dp9
S'Please say your name'
p10
S'name1397951185.03'
p11
sS'Please Say your qualification'
p12
S'qual1397951185.03'
p13
sS'proc'
p14
I0
ss.(dp0
S''
p1
(dp2
S'Please say your name'
p3
S'name1397951208.53'
p4
sS'Please Say your qualification'
p5
S'qual1397951208.53'
p6
sS'proc'
p7
I0
ss.